target datalayout = "e-m:e-p270:32:32-p271:32:32-p272:64:64-i64:64-i128:128-f80:128-n8:16:32:64-S128"
target triple = "x86_64-pc-linux-gnu"

@.str.8 = private unnamed_addr constant [8 x i8] c"default\00", align 1
@.str.9 = private unnamed_addr constant [7 x i8] c"shared\00", align 1
@.str.10 = private unnamed_addr constant [4 x i8] c"own\00", align 1
@PyExc_ValueError = external global ptr, align 8
@.str.16 = private unnamed_addr constant [47 x i8] c"unsupported interpreter config .gil value '%s'\00", align 1

; Function Attrs: nounwind uwtable
define internal i32 @gil_flag_from_str(ptr noundef %0, ptr noundef %1) #0 {
  %3 = alloca i32, align 4
  %4 = alloca ptr, align 8
  %5 = alloca ptr, align 8
  %6 = alloca i32, align 4
  %7 = alloca i32, align 4
  store ptr %0, ptr %4, align 8, !tbaa !119
  store ptr %1, ptr %5, align 8, !tbaa !120
  call void @llvm.lifetime.start.p0(i64 4, ptr %6) #8
  %8 = load ptr, ptr %4, align 8, !tbaa !119
  %9 = icmp eq ptr %8, null
  br i1 %9, label %10, label %11

10:                                               ; preds = %2
  store i32 0, ptr %6, align 4, !tbaa !13
  br label %33

11:                                               ; preds = %2
  %12 = load ptr, ptr %4, align 8, !tbaa !119
  %13 = call i32 @strcmp(ptr noundef %12, ptr noundef @.str.8) #9
  %14 = icmp eq i32 %13, 0
  br i1 %14, label %15, label %16

15:                                               ; preds = %11
  store i32 0, ptr %6, align 4, !tbaa !13
  br label %32

16:                                               ; preds = %11
  %17 = load ptr, ptr %4, align 8, !tbaa !119
  %18 = call i32 @strcmp(ptr noundef %17, ptr noundef @.str.9) #9
  %19 = icmp eq i32 %18, 0
  br i1 %19, label %20, label %21

20:                                               ; preds = %16
  store i32 1, ptr %6, align 4, !tbaa !13
  br label %31

21:                                               ; preds = %16
  %22 = load ptr, ptr %4, align 8, !tbaa !119
  %23 = call i32 @strcmp(ptr noundef %22, ptr noundef @.str.10) #9
  %24 = icmp eq i32 %23, 0
  br i1 %24, label %25, label %26

25:                                               ; preds = %21
  store i32 2, ptr %6, align 4, !tbaa !13
  br label %30

26:                                               ; preds = %21
  %27 = load ptr, ptr @PyExc_ValueError, align 8, !tbaa !8
  %28 = load ptr, ptr %4, align 8, !tbaa !119
  %29 = call ptr (ptr, ptr, ...) @PyErr_Format(ptr noundef %27, ptr noundef @.str.16, ptr noundef %28)
  store i32 -1, ptr %3, align 4
  store i32 1, ptr %7, align 4
  br label %36

30:                                               ; preds = %25
  br label %31

31:                                               ; preds = %30, %20
  br label %32

32:                                               ; preds = %31, %15
  br label %33

33:                                               ; preds = %32, %10
  %34 = load i32, ptr %6, align 4, !tbaa !13
  %35 = load ptr, ptr %5, align 8, !tbaa !120
  store i32 %34, ptr %35, align 4, !tbaa !13
  store i32 0, ptr %3, align 4
  store i32 1, ptr %7, align 4
  br label %36

36:                                               ; preds = %33, %26
  call void @llvm.lifetime.end.p0(i64 4, ptr %6) #8
  %37 = load i32, ptr %3, align 4
  ret i32 %37
}