; Function Attrs: nounwind uwtable
define internal fastcc range(i32 -1, 1) i32 @gil_flag_from_str(ptr noundef nonnull %0, ptr noundef nonnull writeonly captures(none) %1) unnamed_addr #0 {
  %3 = tail call i32 @strcmp(ptr noundef nonnull dereferenceable(1) %0, ptr noundef nonnull dereferenceable(8) @.str.8) #7
  %4 = icmp eq i32 %3, 0
  br i1 %4, label %14, label %5

5:                                                ; preds = %2
  %6 = tail call i32 @strcmp(ptr noundef nonnull dereferenceable(1) %0, ptr noundef nonnull dereferenceable(7) @.str.9) #7
  %7 = icmp eq i32 %6, 0
  br i1 %7, label %14, label %8

8:                                                ; preds = %5
  %9 = tail call i32 @strcmp(ptr noundef nonnull dereferenceable(1) %0, ptr noundef nonnull dereferenceable(4) @.str.10) #7
  %10 = icmp eq i32 %9, 0
  br i1 %10, label %14, label %11

11:                                               ; preds = %8
  %12 = load ptr, ptr @PyExc_ValueError, align 8, !tbaa !16
  %13 = tail call ptr (ptr, ptr, ...) @PyErr_Format(ptr noundef %12, ptr noundef nonnull @.str.16, ptr noundef nonnull %0) #6
  br label %15

14:                                               ; preds = %8, %5, %2
  %.0 = phi i32 [ 0, %2 ], [ 1, %5 ], [ 2, %8 ]
  store i32 %.0, ptr %1, align 4, !tbaa !31
  br label %15

15:                                               ; preds = %14, %11
  %.07 = phi i32 [ 0, %14 ], [ -1, %11 ]
  ret i32 %.07
}